target datalayout = "e-m:e-p270:32:32-p271:32:32-p272:64:64-i64:64-i128:128-f80:128-n8:16:32:64-S128"
target triple = "x86_64-pc-linux-gnu"

%struct.SDL_WaylandDataOffer = type { ptr, %struct.wl_list, ptr, ptr, i32 }
%struct.wl_list = type { ptr, ptr }
%struct.SDL_MimeDataList = type { ptr, ptr, i64, %struct.wl_list }

@WAYLAND_wl_proxy_marshal_flags = external global ptr, align 8
@WAYLAND_wl_proxy_get_version = external global ptr, align 8
@WAYLAND_wl_proxy_destroy = external global ptr, align 8

; Function Attrs: nounwind uwtable
define internal void @mime_data_list_free(ptr noundef %0) #0 {
  %2 = alloca ptr, align 8
  %3 = alloca ptr, align 8
  %4 = alloca ptr, align 8
  store ptr %0, ptr %2, align 8
  call void @llvm.lifetime.start.p0(i64 8, ptr %3) #9
  store ptr null, ptr %3, align 8
  call void @llvm.lifetime.start.p0(i64 8, ptr %4) #9
  store ptr null, ptr %4, align 8
  %5 = load ptr, ptr %2, align 8
  %6 = getelementptr inbounds nuw %struct.wl_list, ptr %5, i32 0, i32 1
  %7 = load ptr, ptr %6, align 8
  %8 = getelementptr inbounds i8, ptr %7, i64 -24
  store ptr %8, ptr %3, align 8
  %9 = load ptr, ptr %3, align 8
  %10 = getelementptr inbounds nuw %struct.SDL_MimeDataList, ptr %9, i32 0, i32 3
  %11 = getelementptr inbounds nuw %struct.wl_list, ptr %10, i32 0, i32 1
  %12 = load ptr, ptr %11, align 8
  %13 = getelementptr inbounds i8, ptr %12, i64 -24
  store ptr %13, ptr %4, align 8
  br label %14

14:                                               ; preds = %39, %1
  %15 = load ptr, ptr %3, align 8
  %16 = getelementptr inbounds nuw %struct.SDL_MimeDataList, ptr %15, i32 0, i32 3
  %17 = load ptr, ptr %2, align 8
  %18 = icmp ne ptr %16, %17
  br i1 %18, label %19, label %46

19:                                               ; preds = %14
  %20 = load ptr, ptr %3, align 8
  %21 = getelementptr inbounds nuw %struct.SDL_MimeDataList, ptr %20, i32 0, i32 1
  %22 = load ptr, ptr %21, align 8
  %23 = icmp ne ptr %22, null
  br i1 %23, label %24, label %28

24:                                               ; preds = %19
  %25 = load ptr, ptr %3, align 8
  %26 = getelementptr inbounds nuw %struct.SDL_MimeDataList, ptr %25, i32 0, i32 1
  %27 = load ptr, ptr %26, align 8
  call void @SDL_free_REAL(ptr noundef %27)
  br label %28

28:                                               ; preds = %24, %19
  %29 = load ptr, ptr %3, align 8
  %30 = getelementptr inbounds nuw %struct.SDL_MimeDataList, ptr %29, i32 0, i32 0
  %31 = load ptr, ptr %30, align 8
  %32 = icmp ne ptr %31, null
  br i1 %32, label %33, label %37

33:                                               ; preds = %28
  %34 = load ptr, ptr %3, align 8
  %35 = getelementptr inbounds nuw %struct.SDL_MimeDataList, ptr %34, i32 0, i32 0
  %36 = load ptr, ptr %35, align 8
  call void @SDL_free_REAL(ptr noundef %36)
  br label %37

37:                                               ; preds = %33, %28
  %38 = load ptr, ptr %3, align 8
  call void @SDL_free_REAL(ptr noundef %38)
  br label %39

39:                                               ; preds = %37
  %40 = load ptr, ptr %4, align 8
  store ptr %40, ptr %3, align 8
  %41 = load ptr, ptr %3, align 8
  %42 = getelementptr inbounds nuw %struct.SDL_MimeDataList, ptr %41, i32 0, i32 3
  %43 = getelementptr inbounds nuw %struct.wl_list, ptr %42, i32 0, i32 1
  %44 = load ptr, ptr %43, align 8
  %45 = getelementptr inbounds i8, ptr %44, i64 -24
  store ptr %45, ptr %4, align 8
  br label %14, !llvm.loop !12

46:                                               ; preds = %14
  call void @llvm.lifetime.end.p0(i64 8, ptr %4) #9
  call void @llvm.lifetime.end.p0(i64 8, ptr %3) #9
  ret void
}

; Function Attrs: inlinehint nounwind uwtable
define internal void @wl_data_offer_destroy(ptr noundef %0) #3 {
  %2 = alloca ptr, align 8
  store ptr %0, ptr %2, align 8
  %3 = load ptr, ptr @WAYLAND_wl_proxy_marshal_flags, align 8
  %4 = load ptr, ptr %2, align 8
  %5 = load ptr, ptr @WAYLAND_wl_proxy_get_version, align 8
  %6 = load ptr, ptr %2, align 8
  %7 = call i32 %5(ptr noundef %6)
  %8 = call ptr (ptr, i32, ptr, i32, i32, ...) %3(ptr noundef %4, i32 noundef 2, ptr noundef null, i32 noundef %7, i32 noundef 1)
  ret void
}

; Function Attrs: inlinehint nounwind uwtable
define internal void @wl_callback_destroy(ptr noundef %0) #3 {
  %2 = alloca ptr, align 8
  store ptr %0, ptr %2, align 8
  %3 = load ptr, ptr @WAYLAND_wl_proxy_destroy, align 8
  %4 = load ptr, ptr %2, align 8
  call void %3(ptr noundef %4)
  ret void
}

; Function Attrs: nounwind uwtable
define hidden void @Wayland_data_offer_destroy(ptr noundef %0) #0 {
  %2 = alloca ptr, align 8
  store ptr %0, ptr %2, align 8
  %3 = load ptr, ptr %2, align 8
  %4 = icmp ne ptr %3, null
  br i1 %4, label %5, label %31

5:                                                ; preds = %1
  %6 = load ptr, ptr %2, align 8
  %7 = getelementptr inbounds nuw %struct.SDL_WaylandDataOffer, ptr %6, i32 0, i32 3
  %8 = load ptr, ptr %7, align 8
  %9 = icmp ne ptr %8, null
  br i1 %9, label %10, label %14

10:                                               ; preds = %5
  %11 = load ptr, ptr %2, align 8
  %12 = getelementptr inbounds nuw %struct.SDL_WaylandDataOffer, ptr %11, i32 0, i32 3
  %13 = load ptr, ptr %12, align 8
  call void @wl_callback_destroy(ptr noundef %13)
  br label %14

14:                                               ; preds = %10, %5
  %15 = load ptr, ptr %2, align 8
  %16 = getelementptr inbounds nuw %struct.SDL_WaylandDataOffer, ptr %15, i32 0, i32 4
  %17 = load i32, ptr %16, align 8
  %18 = icmp sge i32 %17, 0
  br i1 %18, label %19, label %24

19:                                               ; preds = %14
  %20 = load ptr, ptr %2, align 8
  %21 = getelementptr inbounds nuw %struct.SDL_WaylandDataOffer, ptr %20, i32 0, i32 4
  %22 = load i32, ptr %21, align 8
  %23 = call i32 @close(i32 noundef %22)
  br label %24

24:                                               ; preds = %19, %14
  %25 = load ptr, ptr %2, align 8
  %26 = getelementptr inbounds nuw %struct.SDL_WaylandDataOffer, ptr %25, i32 0, i32 0
  %27 = load ptr, ptr %26, align 8
  call void @wl_data_offer_destroy(ptr noundef %27)
  %28 = load ptr, ptr %2, align 8
  %29 = getelementptr inbounds nuw %struct.SDL_WaylandDataOffer, ptr %28, i32 0, i32 1
  call void @mime_data_list_free(ptr noundef %29)
  %30 = load ptr, ptr %2, align 8
  call void @SDL_free_REAL(ptr noundef %30)
  br label %31

31:                                               ; preds = %24, %1
  ret void
}