; Function Attrs: nounwind uwtable
define hidden void @Wayland_data_offer_destroy(ptr noundef %0) local_unnamed_addr #0 {
  %.not = icmp eq ptr %0, null
  br i1 %.not, label %29, label %2

2:                                                ; preds = %1
  %3 = getelementptr inbounds nuw i8, ptr %0, i64 32
  %4 = load ptr, ptr %3, align 8
  %.not10 = icmp eq ptr %4, null
  br i1 %.not10, label %7, label %5

5:                                                ; preds = %2
  %6 = load ptr, ptr @WAYLAND_wl_proxy_destroy, align 8
  tail call void %6(ptr noundef nonnull %4) #12
  br label %7

7:                                                ; preds = %5, %2
  %8 = getelementptr inbounds nuw i8, ptr %0, i64 40
  %9 = load i32, ptr %8, align 8
  %10 = icmp sgt i32 %9, -1
  br i1 %10, label %11, label %13

11:                                               ; preds = %7
  %12 = tail call i32 @close(i32 noundef %9) #12
  br label %13

13:                                               ; preds = %11, %7
  %14 = load ptr, ptr %0, align 8
  %15 = load ptr, ptr @WAYLAND_wl_proxy_marshal_flags, align 8
  %16 = load ptr, ptr @WAYLAND_wl_proxy_get_version, align 8
  %17 = tail call i32 %16(ptr noundef %14) #12
  %18 = tail call ptr (ptr, i32, ptr, i32, i32, ...) %15(ptr noundef %14, i32 noundef 2, ptr noundef null, i32 noundef %17, i32 noundef 1) #12
  %19 = getelementptr inbounds nuw i8, ptr %0, i64 8
  %20 = getelementptr inbounds nuw i8, ptr %0, i64 16
  %21 = load ptr, ptr %20, align 8
  %.not21.i = icmp eq ptr %21, %19
  br i1 %.not21.i, label %mime_data_list_free.exit, label %.lr.ph.i

.lr.ph.i:                                         ; preds = %13, %28
  %.pn1622.i = phi ptr [ %.pn24.i, %28 ], [ %21, %13 ]
  %.01123.i = getelementptr inbounds i8, ptr %.pn1622.i, i64 -24
  %.pn24.in.i = getelementptr inbounds nuw i8, ptr %.pn1622.i, i64 8
  %.pn24.i = load ptr, ptr %.pn24.in.i, align 8
  %22 = getelementptr inbounds i8, ptr %.pn1622.i, i64 -16
  %23 = load ptr, ptr %22, align 8
  %.not14.i = icmp eq ptr %23, null
  br i1 %.not14.i, label %25, label %24

24:                                               ; preds = %.lr.ph.i
  tail call void @SDL_free_REAL(ptr noundef nonnull %23) #12
  br label %25

25:                                               ; preds = %24, %.lr.ph.i
  %26 = load ptr, ptr %.01123.i, align 8
  %.not15.i = icmp eq ptr %26, null
  br i1 %.not15.i, label %28, label %27

27:                                               ; preds = %25
  tail call void @SDL_free_REAL(ptr noundef nonnull %26) #12
  br label %28

28:                                               ; preds = %27, %25
  tail call void @SDL_free_REAL(ptr noundef nonnull %.01123.i) #12
  %.not.i = icmp eq ptr %.pn24.i, %19
  br i1 %.not.i, label %mime_data_list_free.exit, label %.lr.ph.i, !llvm.loop !10

mime_data_list_free.exit:                         ; preds = %28, %13
  tail call void @SDL_free_REAL(ptr noundef nonnull %0) #12
  br label %29

29:                                               ; preds = %mime_data_list_free.exit, %1
  ret void
}